; Function Attrs: nounwind uwtable
define dso_local range(i32 -1, 1) i32 @rhash_file_update(ptr noundef %0, ptr noundef captures(none) %1) local_unnamed_addr #0 {
  %3 = getelementptr inbounds nuw i8, ptr %0, i64 24
  %4 = load volatile i32, ptr %3, align 8, !tbaa !4
  %.not = icmp eq i32 %4, -1340228930
  br i1 %.not, label %5, label %39

5:                                                ; preds = %2
  %6 = tail call noalias align 64 dereferenceable_or_null(8192) ptr @aligned_alloc(i64 noundef 64, i64 noundef 8192) #16
  %.not23 = icmp eq ptr %6, null
  br i1 %.not23, label %39, label %.preheader

.preheader:                                       ; preds = %5
  %7 = tail call i32 @feof(ptr noundef %1) #15
  %.not2429 = icmp eq i32 %7, 0
  br i1 %.not2429, label %.lr.ph, label %._crit_edge

.lr.ph:                                           ; preds = %.preheader
  %8 = getelementptr inbounds nuw i8, ptr %0, i64 16
  %9 = getelementptr inbounds nuw i8, ptr %0, i64 56
  %10 = getelementptr inbounds nuw i8, ptr %0, i64 32
  %11 = getelementptr inbounds nuw i8, ptr %0, i64 40
  br label %12

12:                                               ; preds = %.lr.ph, %37
  %13 = load volatile i32, ptr %3, align 8, !tbaa !4
  %.not25 = icmp eq i32 %13, -1340228930
  br i1 %.not25, label %14, label %._crit_edge

14:                                               ; preds = %12
  %15 = tail call i64 @fread(ptr noundef nonnull %6, i64 noundef 1, i64 noundef 8192, ptr noundef %1)
  %16 = tail call i32 @ferror(ptr noundef %1) #15
  %.not26 = icmp eq i32 %16, 0
  br i1 %.not26, label %17, label %._crit_edge

17:                                               ; preds = %14
  %.not27 = icmp eq i64 %15, 0
  br i1 %.not27, label %37, label %18

18:                                               ; preds = %17
  %19 = load volatile i32, ptr %3, align 8, !tbaa !4
  %.not.i = icmp eq i32 %19, -1340228930
  br i1 %.not.i, label %20, label %rhash_update.exit

20:                                               ; preds = %18
  %21 = load i64, ptr %0, align 8, !tbaa !29
  %22 = add i64 %21, %15
  store i64 %22, ptr %0, align 8, !tbaa !29
  %23 = load i32, ptr %8, align 8, !tbaa !4
  %.not16.i = icmp eq i32 %23, 0
  br i1 %.not16.i, label %rhash_update.exit, label %.lr.ph.i

.lr.ph.i:                                         ; preds = %20, %.lr.ph.i
  %indvars.iv.i = phi i64 [ %indvars.iv.next.i, %.lr.ph.i ], [ 0, %20 ]
  %24 = getelementptr inbounds nuw [0 x %struct.rhash_vector_item], ptr %9, i64 0, i64 %indvars.iv.i
  %25 = load ptr, ptr %24, align 8, !tbaa !20
  %26 = getelementptr inbounds nuw i8, ptr %25, i64 32
  %27 = load ptr, ptr %26, align 8, !tbaa !30
  %28 = getelementptr inbounds nuw i8, ptr %24, i64 8
  %29 = load ptr, ptr %28, align 8, !tbaa !22
  tail call void %27(ptr noundef %29, ptr noundef nonnull %6, i64 noundef %15) #15
  %indvars.iv.next.i = add nuw nsw i64 %indvars.iv.i, 1
  %30 = load i32, ptr %8, align 8, !tbaa !4
  %31 = zext i32 %30 to i64
  %32 = icmp samesign ult i64 %indvars.iv.next.i, %31
  br i1 %32, label %.lr.ph.i, label %rhash_update.exit, !llvm.loop !31

rhash_update.exit:                                ; preds = %.lr.ph.i, %18, %20
  %33 = load ptr, ptr %10, align 8, !tbaa !34
  %.not28 = icmp eq ptr %33, null
  br i1 %.not28, label %37, label %34

34:                                               ; preds = %rhash_update.exit
  %35 = load ptr, ptr %11, align 8, !tbaa !34
  %36 = load i64, ptr %0, align 8, !tbaa !29
  tail call void %33(ptr noundef %35, i64 noundef %36) #15
  br label %37

37:                                               ; preds = %17, %34, %rhash_update.exit
  %38 = tail call i32 @feof(ptr noundef %1) #15
  %.not24 = icmp eq i32 %38, 0
  br i1 %.not24, label %12, label %._crit_edge, !llvm.loop !35

._crit_edge:                                      ; preds = %37, %12, %14, %.preheader
  %.0 = phi i32 [ 0, %.preheader ], [ -1, %14 ], [ 0, %12 ], [ 0, %37 ]
  tail call void @free(ptr noundef %6) #15
  br label %39

39:                                               ; preds = %5, %2, %._crit_edge
  %.019 = phi i32 [ %.0, %._crit_edge ], [ 0, %2 ], [ -1, %5 ]
  ret i32 %.019
}